target datalayout = "e-m:e-p270:32:32-p271:32:32-p272:64:64-i64:64-i128:128-f80:128-n8:16:32:64-S128"
target triple = "x86_64-pc-linux-gnu"

%struct.x509_lookup_st = type { i32, i32, ptr, ptr, ptr }

@.str.1 = private unnamed_addr constant [124 x i8] c"generated/home/dtcxzyw/WorkSpace/Projects/compilers/llvm-opt-benchmark/bench/libquic/libquic/boringssl/crypto/x509/by_dir.c\00", align 1

; Function Attrs: nounwind uwtable
define internal i32 @dir_ctrl(ptr noundef %0, i32 noundef %1, ptr noundef %2, i64 noundef %3, ptr noundef %4) #0 {
  %6 = alloca ptr, align 8
  %7 = alloca i32, align 4
  %8 = alloca ptr, align 8
  %9 = alloca i64, align 8
  %10 = alloca ptr, align 8
  %11 = alloca i32, align 4
  %12 = alloca ptr, align 8
  %13 = alloca ptr, align 8
  store ptr %0, ptr %6, align 8, !tbaa !6
  store i32 %1, ptr %7, align 4, !tbaa !24
  store ptr %2, ptr %8, align 8, !tbaa !25
  store i64 %3, ptr %9, align 8, !tbaa !26
  store ptr %4, ptr %10, align 8, !tbaa !28
  call void @llvm.lifetime.start.p0(i64 4, ptr %11) #7
  store i32 0, ptr %11, align 4, !tbaa !24
  call void @llvm.lifetime.start.p0(i64 8, ptr %12) #7
  call void @llvm.lifetime.start.p0(i64 8, ptr %13) #7
  store ptr null, ptr %13, align 8, !tbaa !25
  %14 = load ptr, ptr %6, align 8, !tbaa !6
  %15 = getelementptr inbounds nuw %struct.x509_lookup_st, ptr %14, i32 0, i32 3
  %16 = load ptr, ptr %15, align 8, !tbaa !18
  store ptr %16, ptr %12, align 8, !tbaa !11
  %17 = load i32, ptr %7, align 4, !tbaa !24
  switch i32 %17, label %46 [
    i32 2, label %18
  ]

18:                                               ; preds = %5
  %19 = load i64, ptr %9, align 8, !tbaa !26
  %20 = icmp eq i64 %19, 3
  br i1 %20, label %21, label %39

21:                                               ; preds = %18
  %22 = call ptr @X509_get_default_cert_dir_env()
  %23 = call ptr @getenv(ptr noundef %22) #7
  store ptr %23, ptr %13, align 8, !tbaa !25
  %24 = load ptr, ptr %13, align 8, !tbaa !25
  %25 = icmp ne ptr %24, null
  br i1 %25, label %26, label %30

26:                                               ; preds = %21
  %27 = load ptr, ptr %12, align 8, !tbaa !11
  %28 = load ptr, ptr %13, align 8, !tbaa !25
  %29 = call i32 @add_cert_dir(ptr noundef %27, ptr noundef %28, i32 noundef 1)
  store i32 %29, ptr %11, align 4, !tbaa !24
  br label %34

30:                                               ; preds = %21
  %31 = load ptr, ptr %12, align 8, !tbaa !11
  %32 = call ptr @X509_get_default_cert_dir()
  %33 = call i32 @add_cert_dir(ptr noundef %31, ptr noundef %32, i32 noundef 1)
  store i32 %33, ptr %11, align 4, !tbaa !24
  br label %34

34:                                               ; preds = %30, %26
  %35 = load i32, ptr %11, align 4, !tbaa !24
  %36 = icmp ne i32 %35, 0
  br i1 %36, label %38, label %37

37:                                               ; preds = %34
  call void @ERR_put_error(i32 noundef 11, i32 noundef 0, i32 noundef 117, ptr noundef @.str.1, i32 noundef 134)
  br label %38

38:                                               ; preds = %37, %34
  br label %45

39:                                               ; preds = %18
  %40 = load ptr, ptr %12, align 8, !tbaa !11
  %41 = load ptr, ptr %8, align 8, !tbaa !25
  %42 = load i64, ptr %9, align 8, !tbaa !26
  %43 = trunc i64 %42 to i32
  %44 = call i32 @add_cert_dir(ptr noundef %40, ptr noundef %41, i32 noundef %43)
  store i32 %44, ptr %11, align 4, !tbaa !24
  br label %45

45:                                               ; preds = %39, %38
  br label %46

46:                                               ; preds = %5, %45
  %47 = load i32, ptr %11, align 4, !tbaa !24
  call void @llvm.lifetime.end.p0(i64 8, ptr %13) #7
  call void @llvm.lifetime.end.p0(i64 8, ptr %12) #7
  call void @llvm.lifetime.end.p0(i64 4, ptr %11) #7
  ret i32 %47
}