; Function Attrs: nounwind uwtable
define internal range(i32 0, 2) i32 @dir_ctrl(ptr noundef readonly captures(none) %0, i32 noundef %1, ptr noundef %2, i64 noundef %3, ptr readnone captures(none) %4) #1 {
  %6 = getelementptr inbounds nuw i8, ptr %0, i64 16
  %7 = load ptr, ptr %6, align 8, !tbaa !14
  %cond = icmp eq i32 %1, 2
  br i1 %cond, label %8, label %21

8:                                                ; preds = %5
  %9 = icmp eq i64 %3, 3
  br i1 %9, label %10, label %18

10:                                               ; preds = %8
  %11 = tail call ptr @X509_get_default_cert_dir_env() #14
  %12 = tail call ptr @getenv(ptr noundef %11) #14
  %.not = icmp eq ptr %12, null
  br i1 %.not, label %13, label %15

13:                                               ; preds = %10
  %14 = tail call ptr @X509_get_default_cert_dir() #14
  br label %15

15:                                               ; preds = %10, %13
  %.sink = phi ptr [ %14, %13 ], [ %12, %10 ]
  %16 = tail call fastcc i32 @add_cert_dir(ptr noundef %7, ptr noundef %.sink, i32 noundef 1)
  %.not13 = icmp eq i32 %16, 0
  br i1 %.not13, label %17, label %21

17:                                               ; preds = %15
  tail call void @ERR_put_error(i32 noundef 11, i32 noundef 0, i32 noundef 117, ptr noundef nonnull @.str.1, i32 noundef 134) #14
  br label %21

18:                                               ; preds = %8
  %19 = trunc i64 %3 to i32
  %20 = tail call fastcc i32 @add_cert_dir(ptr noundef %7, ptr noundef %2, i32 noundef %19)
  br label %21

21:                                               ; preds = %18, %17, %15, %5
  %.0 = phi i32 [ 1, %15 ], [ 0, %17 ], [ %20, %18 ], [ 0, %5 ]
  ret i32 %.0
}